target datalayout = "e-m:e-p270:32:32-p271:32:32-p272:64:64-i64:64-i128:128-f80:128-n8:16:32:64-S128"
target triple = "x86_64-pc-linux-gnu"

%"class.clang::ento::SVal" = type <{ ptr, i8, [7 x i8] }>
%"class.(anonymous namespace)::RegionBindingsRef" = type <{ %"class.llvm::ImmutableMapRef", ptr, i8, [7 x i8] }>
%"class.llvm::ImmutableMapRef" = type { %"class.llvm::IntrusiveRefCntPtr.1086", ptr }
%"class.llvm::IntrusiveRefCntPtr.1086" = type { ptr }
%"class.(anonymous namespace)::BindingKey" = type { %"class.llvm::PointerIntPair.1155", i64 }
%"class.llvm::PointerIntPair.1155" = type { %"struct.llvm::detail::PunnedPointer.1156" }
%"struct.llvm::detail::PunnedPointer.1156" = type { [8 x i8] }
%"class.clang::ento::RegionOffset" = type { ptr, i64 }
%"struct.std::pair.1181" = type { ptr, %"class.llvm::ImmutableMap" }
%"class.llvm::ImmutableMap" = type { %"class.llvm::IntrusiveRefCntPtr.1154" }
%"class.llvm::IntrusiveRefCntPtr.1154" = type { ptr }
%"class.llvm::ImutAVLTree.1180" = type { ptr, ptr, ptr, ptr, ptr, i32, %"struct.std::pair.1181", i32, i32 }

; Function Attrs: mustprogress nounwind uwtable
define linkonce_odr hidden noundef ptr @_ZN4llvm21PointerLikeTypeTraitsIPN5clang4ento9MemRegionEE16getAsVoidPointerES4_(ptr noundef %0) #0 comdat align 2 {
  %2 = alloca ptr, align 8
  store ptr %0, ptr %2, align 8
  %3 = load ptr, ptr %2, align 8
  ret ptr %3
}

; Function Attrs: mustprogress nounwind uwtable
define linkonce_odr hidden noundef ptr @_ZN4llvm21PointerLikeTypeTraitsIPKN5clang4ento9MemRegionEE16getAsVoidPointerES5_(ptr noundef %0) #0 comdat align 2 {
  %2 = alloca ptr, align 8
  store ptr %0, ptr %2, align 8
  %3 = load ptr, ptr %2, align 8
  %4 = call noundef ptr @_ZN4llvm21PointerLikeTypeTraitsIPN5clang4ento9MemRegionEE16getAsVoidPointerES4_(ptr noundef %3)
  ret ptr %4
}

; Function Attrs: mustprogress nounwind uwtable
define internal void @_ZN4llvm11ImutAVLTreeINS_16ImutKeyValueInfoIPKN5clang4ento9MemRegionENS_12ImmutableMapIN12_GLOBAL__N_110BindingKeyENS3_4SValENS1_IS9_SA_EEEEEEE7releaseEv(ptr noundef nonnull align 8 dereferenceable(72) %0) #0 align 2 {
  %2 = alloca ptr, align 8
  store ptr %0, ptr %2, align 8
  %3 = load ptr, ptr %2, align 8
  %4 = getelementptr inbounds nuw %"class.llvm::ImutAVLTree.1180", ptr %3, i32 0, i32 8
  %5 = load i32, ptr %4, align 4
  %6 = add i32 %5, -1
  store i32 %6, ptr %4, align 4
  %7 = icmp eq i32 %6, 0
  br i1 %7, label %8, label %9

8:                                                ; preds = %1
  call void @_ZN4llvm11ImutAVLTreeINS_16ImutKeyValueInfoIPKN5clang4ento9MemRegionENS_12ImmutableMapIN12_GLOBAL__N_110BindingKeyENS3_4SValENS1_IS9_SA_EEEEEEE7destroyEv(ptr noundef nonnull align 8 dereferenceable(72) %3)
  br label %9

9:                                                ; preds = %8, %1
  ret void
}

; Function Attrs: mustprogress nounwind uwtable
define linkonce_odr hidden noundef i64 @_ZN4llvm18PointerIntPairInfoIPKN5clang4ento9MemRegionELj2ENS_21PointerLikeTypeTraitsIS5_EEE9updateIntEll(i64 noundef %0, i64 noundef %1) #0 comdat align 2 {
  %3 = alloca i64, align 8
  %4 = alloca i64, align 8
  %5 = alloca i64, align 8
  store i64 %0, ptr %3, align 8
  store i64 %1, ptr %4, align 8
  %6 = load i64, ptr %4, align 8
  store i64 %6, ptr %5, align 8
  %7 = load i64, ptr %3, align 8
  %8 = and i64 %7, -7
  %9 = load i64, ptr %5, align 8
  %10 = shl i64 %9, 1
  %11 = or i64 %8, %10
  ret i64 %11
}

; Function Attrs: mustprogress nounwind uwtable
define linkonce_odr hidden noundef i64 @_ZN4llvm18PointerIntPairInfoIPKN5clang4ento9MemRegionELj2ENS_21PointerLikeTypeTraitsIS5_EEE13updatePointerElS5_(i64 noundef %0, ptr noundef %1) #0 comdat align 2 {
  %3 = alloca i64, align 8
  %4 = alloca ptr, align 8
  %5 = alloca i64, align 8
  store i64 %0, ptr %3, align 8
  store ptr %1, ptr %4, align 8
  %6 = load ptr, ptr %4, align 8
  %7 = call noundef ptr @_ZN4llvm21PointerLikeTypeTraitsIPKN5clang4ento9MemRegionEE16getAsVoidPointerES5_(ptr noundef %6)
  %8 = ptrtoint ptr %7 to i64
  store i64 %8, ptr %5, align 8
  %9 = load i64, ptr %5, align 8
  %10 = load i64, ptr %3, align 8
  %11 = and i64 %10, 7
  %12 = or i64 %9, %11
  ret i64 %12
}

; Function Attrs: mustprogress nounwind uwtable
define linkonce_odr hidden noundef nonnull align 8 dereferenceable(8) ptr @_ZN4llvm6detail13PunnedPointerIPKN5clang4ento9MemRegionEEaSEl(ptr noundef nonnull align 8 dereferenceable(8) %0, i64 noundef %1) #0 comdat align 2 {
  %3 = alloca ptr, align 8
  %4 = alloca i64, align 8
  store ptr %0, ptr %3, align 8
  store i64 %1, ptr %4, align 8
  %5 = load ptr, ptr %3, align 8
  %6 = getelementptr inbounds nuw %"struct.llvm::detail::PunnedPointer.1156", ptr %5, i32 0, i32 0
  %7 = getelementptr inbounds [8 x i8], ptr %6, i64 0, i64 0
  call void @llvm.memcpy.p0.p0.i64(ptr align 8 %7, ptr align 8 %4, i64 8, i1 false)
  ret ptr %5
}

; Function Attrs: mustprogress nounwind uwtable
define internal void @_ZN4llvm22IntrusiveRefCntPtrInfoINS_11ImutAVLTreeINS_16ImutKeyValueInfoIPKN5clang4ento9MemRegionENS_12ImmutableMapIN12_GLOBAL__N_110BindingKeyENS4_4SValENS2_ISA_SB_EEEEEEEEE7releaseEPSF_(ptr noundef %0) #0 align 2 {
  %2 = alloca ptr, align 8
  store ptr %0, ptr %2, align 8
  %3 = load ptr, ptr %2, align 8
  call void @_ZN4llvm11ImutAVLTreeINS_16ImutKeyValueInfoIPKN5clang4ento9MemRegionENS_12ImmutableMapIN12_GLOBAL__N_110BindingKeyENS3_4SValENS1_IS9_SA_EEEEEEE7releaseEv(ptr noundef nonnull align 8 dereferenceable(72) %3)
  ret void
}

; Function Attrs: mustprogress nounwind uwtable
define linkonce_odr hidden void @_ZNR4llvm14PointerIntPairIPKN5clang4ento9MemRegionELj2EjNS_21PointerLikeTypeTraitsIS5_EENS_18PointerIntPairInfoIS5_Lj2ES7_EEE16setPointerAndIntES5_j(ptr noundef nonnull align 8 dereferenceable(8) %0, ptr noundef %1, i32 noundef %2) #0 comdat align 2 {
  %4 = alloca ptr, align 8
  %5 = alloca ptr, align 8
  %6 = alloca i32, align 4
  store ptr %0, ptr %4, align 8
  store ptr %1, ptr %5, align 8
  store i32 %2, ptr %6, align 4
  %7 = load ptr, ptr %4, align 8
  %8 = load ptr, ptr %5, align 8
  %9 = call noundef i64 @_ZN4llvm18PointerIntPairInfoIPKN5clang4ento9MemRegionELj2ENS_21PointerLikeTypeTraitsIS5_EEE13updatePointerElS5_(i64 noundef 0, ptr noundef %8)
  %10 = load i32, ptr %6, align 4
  %11 = zext i32 %10 to i64
  %12 = call noundef i64 @_ZN4llvm18PointerIntPairInfoIPKN5clang4ento9MemRegionELj2ENS_21PointerLikeTypeTraitsIS5_EEE9updateIntEll(i64 noundef %9, i64 noundef %11)
  %13 = getelementptr inbounds nuw %"class.llvm::PointerIntPair.1155", ptr %7, i32 0, i32 0
  %14 = call noundef nonnull align 8 dereferenceable(8) ptr @_ZN4llvm6detail13PunnedPointerIPKN5clang4ento9MemRegionEEaSEl(ptr noundef nonnull align 8 dereferenceable(8) %13, i64 noundef %12)
  ret void
}

; Function Attrs: mustprogress nounwind uwtable
define linkonce_odr hidden void @_ZN4llvm6detail13PunnedPointerIPKN5clang4ento9MemRegionEEC2El(ptr noundef nonnull align 8 dereferenceable(8) %0, i64 noundef %1) unnamed_addr #0 comdat align 2 {
  %3 = alloca ptr, align 8
  %4 = alloca i64, align 8
  store ptr %0, ptr %3, align 8
  store i64 %1, ptr %4, align 8
  %5 = load ptr, ptr %3, align 8
  %6 = load i64, ptr %4, align 8
  %7 = call noundef nonnull align 8 dereferenceable(8) ptr @_ZN4llvm6detail13PunnedPointerIPKN5clang4ento9MemRegionEEaSEl(ptr noundef nonnull align 8 dereferenceable(8) %5, i64 noundef %6)
  ret void
}

; Function Attrs: mustprogress nounwind uwtable
define linkonce_odr hidden noundef ptr @_ZN4llvm16cast_convert_valIN5clang4ento9SubRegionEPKNS2_9MemRegionES6_E4doitES6_(ptr noundef %0) #0 comdat align 2 {
  %2 = alloca ptr, align 8
  store ptr %0, ptr %2, align 8
  %3 = load ptr, ptr %2, align 8
  ret ptr %3
}

; Function Attrs: mustprogress nounwind uwtable
define internal void @_ZN4llvm18IntrusiveRefCntPtrINS_11ImutAVLTreeINS_16ImutKeyValueInfoIPKN5clang4ento9MemRegionENS_12ImmutableMapIN12_GLOBAL__N_110BindingKeyENS4_4SValENS2_ISA_SB_EEEEEEEEE7releaseEv(ptr noundef nonnull align 8 dereferenceable(8) %0) #0 align 2 {
  %2 = alloca ptr, align 8
  store ptr %0, ptr %2, align 8
  %3 = load ptr, ptr %2, align 8
  %4 = getelementptr inbounds nuw %"class.llvm::IntrusiveRefCntPtr.1086", ptr %3, i32 0, i32 0
  %5 = load ptr, ptr %4, align 8
  %6 = icmp ne ptr %5, null
  br i1 %6, label %7, label %10

7:                                                ; preds = %1
  %8 = getelementptr inbounds nuw %"class.llvm::IntrusiveRefCntPtr.1086", ptr %3, i32 0, i32 0
  %9 = load ptr, ptr %8, align 8
  call void @_ZN4llvm22IntrusiveRefCntPtrInfoINS_11ImutAVLTreeINS_16ImutKeyValueInfoIPKN5clang4ento9MemRegionENS_12ImmutableMapIN12_GLOBAL__N_110BindingKeyENS4_4SValENS2_ISA_SB_EEEEEEEEE7releaseEPSF_(ptr noundef %9)
  br label %10

10:                                               ; preds = %7, %1
  ret void
}

; Function Attrs: mustprogress nounwind uwtable
define linkonce_odr hidden void @_ZN4llvm14PointerIntPairIPKN5clang4ento9MemRegionELj2EjNS_21PointerLikeTypeTraitsIS5_EENS_18PointerIntPairInfoIS5_Lj2ES7_EEEC2ES5_j(ptr noundef nonnull align 8 dereferenceable(8) %0, ptr noundef %1, i32 noundef %2) unnamed_addr #0 comdat align 2 {
  %4 = alloca ptr, align 8
  %5 = alloca ptr, align 8
  %6 = alloca i32, align 4
  store ptr %0, ptr %4, align 8
  store ptr %1, ptr %5, align 8
  store i32 %2, ptr %6, align 4
  %7 = load ptr, ptr %4, align 8
  %8 = getelementptr inbounds nuw %"class.llvm::PointerIntPair.1155", ptr %7, i32 0, i32 0
  call void @_ZN4llvm6detail13PunnedPointerIPKN5clang4ento9MemRegionEEC2El(ptr noundef nonnull align 8 dereferenceable(8) %8, i64 noundef 0)
  %9 = load ptr, ptr %5, align 8
  %10 = load i32, ptr %6, align 4
  call void @_ZNR4llvm14PointerIntPairIPKN5clang4ento9MemRegionELj2EjNS_21PointerLikeTypeTraitsIS5_EENS_18PointerIntPairInfoIS5_Lj2ES7_EEE16setPointerAndIntES5_j(ptr noundef nonnull align 8 dereferenceable(8) %7, ptr noundef %9, i32 noundef %10)
  ret void
}

; Function Attrs: mustprogress nounwind uwtable
define linkonce_odr hidden noundef ptr @_ZN4llvm8CastInfoIN5clang4ento9SubRegionEPKNS2_9MemRegionEvE6doCastERKS6_(ptr noundef nonnull align 8 dereferenceable(8) %0) #0 comdat align 2 {
  %2 = alloca ptr, align 8
  store ptr %0, ptr %2, align 8
  %3 = load ptr, ptr %2, align 8
  %4 = load ptr, ptr %3, align 8
  %5 = call noundef ptr @_ZN4llvm16cast_convert_valIN5clang4ento9SubRegionEPKNS2_9MemRegionES6_E4doitES6_(ptr noundef %4)
  ret ptr %5
}

; Function Attrs: mustprogress nounwind uwtable
define internal void @_ZN4llvm18IntrusiveRefCntPtrINS_11ImutAVLTreeINS_16ImutKeyValueInfoIPKN5clang4ento9MemRegionENS_12ImmutableMapIN12_GLOBAL__N_110BindingKeyENS4_4SValENS2_ISA_SB_EEEEEEEEED2Ev(ptr noundef nonnull align 8 dereferenceable(8) %0) unnamed_addr #0 align 2 {
  %2 = alloca ptr, align 8
  store ptr %0, ptr %2, align 8
  %3 = load ptr, ptr %2, align 8
  call void @_ZN4llvm18IntrusiveRefCntPtrINS_11ImutAVLTreeINS_16ImutKeyValueInfoIPKN5clang4ento9MemRegionENS_12ImmutableMapIN12_GLOBAL__N_110BindingKeyENS4_4SValENS2_ISA_SB_EEEEEEEEE7releaseEv(ptr noundef nonnull align 8 dereferenceable(8) %3)
  ret void
}

; Function Attrs: mustprogress nounwind uwtable
define internal void @_ZN12_GLOBAL__N_110BindingKeyC2EPKN5clang4ento9MemRegionEmNS0_4KindE(ptr noundef nonnull align 8 dereferenceable(16) %0, ptr noundef %1, i64 noundef %2, i32 noundef %3) unnamed_addr #0 align 2 {
  %5 = alloca ptr, align 8
  %6 = alloca ptr, align 8
  %7 = alloca i64, align 8
  %8 = alloca i32, align 4
  store ptr %0, ptr %5, align 8
  store ptr %1, ptr %6, align 8
  store i64 %2, ptr %7, align 8
  store i32 %3, ptr %8, align 4
  %9 = load ptr, ptr %5, align 8
  %10 = getelementptr inbounds nuw %"class.(anonymous namespace)::BindingKey", ptr %9, i32 0, i32 0
  %11 = load ptr, ptr %6, align 8
  %12 = load i32, ptr %8, align 4
  call void @_ZN4llvm14PointerIntPairIPKN5clang4ento9MemRegionELj2EjNS_21PointerLikeTypeTraitsIS5_EENS_18PointerIntPairInfoIS5_Lj2ES7_EEEC2ES5_j(ptr noundef nonnull align 8 dereferenceable(8) %10, ptr noundef %11, i32 noundef %12)
  %13 = getelementptr inbounds nuw %"class.(anonymous namespace)::BindingKey", ptr %9, i32 0, i32 1
  %14 = load i64, ptr %7, align 8
  store i64 %14, ptr %13, align 8
  ret void
}

; Function Attrs: mustprogress nounwind uwtable
define linkonce_odr hidden noundef i64 @_ZNK5clang4ento12RegionOffset9getOffsetEv(ptr noundef nonnull align 8 dereferenceable(16) %0) #0 comdat align 2 {
  %2 = alloca ptr, align 8
  store ptr %0, ptr %2, align 8
  %3 = load ptr, ptr %2, align 8
  %4 = getelementptr inbounds nuw %"class.clang::ento::RegionOffset", ptr %3, i32 0, i32 1
  %5 = load i64, ptr %4, align 8
  ret i64 %5
}

; Function Attrs: mustprogress nounwind uwtable
define internal void @_ZN12_GLOBAL__N_110BindingKeyC2EPKN5clang4ento9SubRegionES5_NS0_4KindE(ptr noundef nonnull align 8 dereferenceable(16) %0, ptr noundef %1, ptr noundef %2, i32 noundef %3) unnamed_addr #0 align 2 {
  %5 = alloca ptr, align 8
  %6 = alloca ptr, align 8
  %7 = alloca ptr, align 8
  %8 = alloca i32, align 4
  store ptr %0, ptr %5, align 8
  store ptr %1, ptr %6, align 8
  store ptr %2, ptr %7, align 8
  store i32 %3, ptr %8, align 4
  %9 = load ptr, ptr %5, align 8
  %10 = getelementptr inbounds nuw %"class.(anonymous namespace)::BindingKey", ptr %9, i32 0, i32 0
  %11 = load ptr, ptr %6, align 8
  %12 = load i32, ptr %8, align 4
  %13 = or i32 %12, 2
  call void @_ZN4llvm14PointerIntPairIPKN5clang4ento9MemRegionELj2EjNS_21PointerLikeTypeTraitsIS5_EENS_18PointerIntPairInfoIS5_Lj2ES7_EEEC2ES5_j(ptr noundef nonnull align 8 dereferenceable(8) %10, ptr noundef %11, i32 noundef %13)
  %14 = getelementptr inbounds nuw %"class.(anonymous namespace)::BindingKey", ptr %9, i32 0, i32 1
  %15 = load ptr, ptr %7, align 8
  %16 = ptrtoint ptr %15 to i64
  store i64 %16, ptr %14, align 8
  ret void
}

; Function Attrs: mustprogress nounwind uwtable
define linkonce_odr hidden noundef ptr @_ZNK5clang4ento12RegionOffset9getRegionEv(ptr noundef nonnull align 8 dereferenceable(16) %0) #0 comdat align 2 {
  %2 = alloca ptr, align 8
  store ptr %0, ptr %2, align 8
  %3 = load ptr, ptr %2, align 8
  %4 = getelementptr inbounds nuw %"class.clang::ento::RegionOffset", ptr %3, i32 0, i32 0
  %5 = load ptr, ptr %4, align 8
  ret ptr %5
}

; Function Attrs: mustprogress nounwind uwtable
define linkonce_odr hidden noundef ptr @_ZN4llvm4castIN5clang4ento9SubRegionEKNS2_9MemRegionEEEDcPT0_(ptr noundef %0) #0 comdat {
  %2 = alloca ptr, align 8
  store ptr %0, ptr %2, align 8
  %3 = call noundef ptr @_ZN4llvm8CastInfoIN5clang4ento9SubRegionEPKNS2_9MemRegionEvE6doCastERKS6_(ptr noundef nonnull align 8 dereferenceable(8) %2)
  ret ptr %3
}

; Function Attrs: mustprogress nounwind uwtable
define linkonce_odr hidden noundef zeroext i1 @_ZNK5clang4ento12RegionOffset17hasSymbolicOffsetEv(ptr noundef nonnull align 8 dereferenceable(16) %0) #0 comdat align 2 {
  %2 = alloca ptr, align 8
  store ptr %0, ptr %2, align 8
  %3 = load ptr, ptr %2, align 8
  %4 = getelementptr inbounds nuw %"class.clang::ento::RegionOffset", ptr %3, i32 0, i32 1
  %5 = load i64, ptr %4, align 8
  %6 = icmp eq i64 %5, 9223372036854775807
  ret i1 %6
}

; Function Attrs: mustprogress nounwind uwtable
define internal void @_ZN4llvm15ImmutableMapRefIPKN5clang4ento9MemRegionENS_12ImmutableMapIN12_GLOBAL__N_110BindingKeyENS2_4SValENS_16ImutKeyValueInfoIS8_S9_EEEENSA_IS5_SC_EEED2Ev(ptr noundef nonnull align 8 dereferenceable(16) %0) unnamed_addr #0 align 2 {
  %2 = alloca ptr, align 8
  store ptr %0, ptr %2, align 8
  %3 = load ptr, ptr %2, align 8
  %4 = getelementptr inbounds nuw %"class.llvm::ImmutableMapRef", ptr %3, i32 0, i32 0
  call void @_ZN4llvm18IntrusiveRefCntPtrINS_11ImutAVLTreeINS_16ImutKeyValueInfoIPKN5clang4ento9MemRegionENS_12ImmutableMapIN12_GLOBAL__N_110BindingKeyENS4_4SValENS2_ISA_SB_EEEEEEEEED2Ev(ptr noundef nonnull align 8 dereferenceable(8) %4) #15
  ret void
}

; Function Attrs: mustprogress nounwind uwtable
define internal { i64, i64 } @_ZN12_GLOBAL__N_110BindingKey4MakeEPKN5clang4ento9MemRegionENS0_4KindE(ptr noundef %0, i32 noundef %1) #0 align 2 {
  %3 = alloca %"class.(anonymous namespace)::BindingKey", align 8
  %4 = alloca ptr, align 8
  %5 = alloca i32, align 4
  %6 = alloca ptr, align 8
  %7 = alloca %"class.clang::ento::RegionOffset", align 8
  store ptr %0, ptr %4, align 8
  store i32 %1, ptr %5, align 4
  %8 = load ptr, ptr %4, align 8
  %9 = call { ptr, i64 } @_ZNK5clang4ento9MemRegion11getAsOffsetEv(ptr noundef nonnull align 8 dereferenceable(48) %8)
  %10 = getelementptr inbounds nuw { ptr, i64 }, ptr %7, i32 0, i32 0
  %11 = extractvalue { ptr, i64 } %9, 0
  store ptr %11, ptr %10, align 8
  %12 = getelementptr inbounds nuw { ptr, i64 }, ptr %7, i32 0, i32 1
  %13 = extractvalue { ptr, i64 } %9, 1
  store i64 %13, ptr %12, align 8
  store ptr %7, ptr %6, align 8
  %14 = load ptr, ptr %6, align 8
  %15 = call noundef zeroext i1 @_ZNK5clang4ento12RegionOffset17hasSymbolicOffsetEv(ptr noundef nonnull align 8 dereferenceable(16) %14)
  br i1 %15, label %16, label %23

16:                                               ; preds = %2
  %17 = load ptr, ptr %4, align 8
  %18 = call noundef ptr @_ZN4llvm4castIN5clang4ento9SubRegionEKNS2_9MemRegionEEEDcPT0_(ptr noundef %17)
  %19 = load ptr, ptr %6, align 8
  %20 = call noundef ptr @_ZNK5clang4ento12RegionOffset9getRegionEv(ptr noundef nonnull align 8 dereferenceable(16) %19)
  %21 = call noundef ptr @_ZN4llvm4castIN5clang4ento9SubRegionEKNS2_9MemRegionEEEDcPT0_(ptr noundef %20)
  %22 = load i32, ptr %5, align 4
  call void @_ZN12_GLOBAL__N_110BindingKeyC2EPKN5clang4ento9SubRegionES5_NS0_4KindE(ptr noundef nonnull align 8 dereferenceable(16) %3, ptr noundef %18, ptr noundef %21, i32 noundef %22)
  br label %29

23:                                               ; preds = %2
  %24 = load ptr, ptr %6, align 8
  %25 = call noundef ptr @_ZNK5clang4ento12RegionOffset9getRegionEv(ptr noundef nonnull align 8 dereferenceable(16) %24)
  %26 = load ptr, ptr %6, align 8
  %27 = call noundef i64 @_ZNK5clang4ento12RegionOffset9getOffsetEv(ptr noundef nonnull align 8 dereferenceable(16) %26)
  %28 = load i32, ptr %5, align 4
  call void @_ZN12_GLOBAL__N_110BindingKeyC2EPKN5clang4ento9MemRegionEmNS0_4KindE(ptr noundef nonnull align 8 dereferenceable(16) %3, ptr noundef %25, i64 noundef %27, i32 noundef %28)
  br label %29

29:                                               ; preds = %23, %16
  %30 = load { i64, i64 }, ptr %3, align 8
  ret { i64, i64 } %30
}

; Function Attrs: mustprogress nounwind uwtable
define internal void @_ZN12_GLOBAL__N_117RegionBindingsRefD2Ev(ptr noundef nonnull align 8 dereferenceable(25) %0) unnamed_addr #0 align 2 {
  %2 = alloca ptr, align 8
  store ptr %0, ptr %2, align 8
  %3 = load ptr, ptr %2, align 8
  call void @_ZN4llvm15ImmutableMapRefIPKN5clang4ento9MemRegionENS_12ImmutableMapIN12_GLOBAL__N_110BindingKeyENS2_4SValENS_16ImutKeyValueInfoIS8_S9_EEEENSA_IS5_SC_EEED2Ev(ptr noundef nonnull align 8 dereferenceable(16) %3) #15
  ret void
}

; Function Attrs: mustprogress nounwind uwtable
define internal void @_ZNK12_GLOBAL__N_117RegionBindingsRef10addBindingEPKN5clang4ento9MemRegionENS_10BindingKey4KindENS2_4SValE(ptr dead_on_unwind noalias writable sret(%"class.(anonymous namespace)::RegionBindingsRef") align 8 %0, ptr noundef nonnull align 8 dereferenceable(25) %1, ptr noundef %2, i32 noundef %3, ptr %4, i8 %5) #0 align 2 {
  %7 = alloca ptr, align 8
  %8 = alloca %"class.clang::ento::SVal", align 8
  %9 = alloca ptr, align 8
  %10 = alloca ptr, align 8
  %11 = alloca i32, align 4
  %12 = alloca %"class.(anonymous namespace)::BindingKey", align 8
  %13 = alloca %"class.clang::ento::SVal", align 8
  store ptr %0, ptr %7, align 8
  %14 = getelementptr inbounds nuw { ptr, i8 }, ptr %8, i32 0, i32 0
  store ptr %4, ptr %14, align 8
  %15 = getelementptr inbounds nuw { ptr, i8 }, ptr %8, i32 0, i32 1
  store i8 %5, ptr %15, align 8
  store ptr %1, ptr %9, align 8
  store ptr %2, ptr %10, align 8
  store i32 %3, ptr %11, align 4
  %16 = load ptr, ptr %9, align 8
  %17 = load ptr, ptr %10, align 8
  %18 = load i32, ptr %11, align 4
  %19 = call { i64, i64 } @_ZN12_GLOBAL__N_110BindingKey4MakeEPKN5clang4ento9MemRegionENS0_4KindE(ptr noundef %17, i32 noundef %18)
  %20 = getelementptr inbounds nuw { i64, i64 }, ptr %12, i32 0, i32 0
  %21 = extractvalue { i64, i64 } %19, 0
  store i64 %21, ptr %20, align 8
  %22 = getelementptr inbounds nuw { i64, i64 }, ptr %12, i32 0, i32 1
  %23 = extractvalue { i64, i64 } %19, 1
  store i64 %23, ptr %22, align 8
  call void @llvm.memcpy.p0.p0.i64(ptr align 8 %13, ptr align 8 %8, i64 16, i1 false)
  %24 = getelementptr inbounds nuw { i64, i64 }, ptr %12, i32 0, i32 0
  %25 = load i64, ptr %24, align 8
  %26 = getelementptr inbounds nuw { i64, i64 }, ptr %12, i32 0, i32 1
  %27 = load i64, ptr %26, align 8
  %28 = getelementptr inbounds nuw { ptr, i8 }, ptr %13, i32 0, i32 0
  %29 = load ptr, ptr %28, align 8
  %30 = getelementptr inbounds nuw { ptr, i8 }, ptr %13, i32 0, i32 1
  %31 = load i8, ptr %30, align 8
  call void @_ZNK12_GLOBAL__N_117RegionBindingsRef10addBindingENS_10BindingKeyEN5clang4ento4SValE(ptr dead_on_unwind writable sret(%"class.(anonymous namespace)::RegionBindingsRef") align 8 %0, ptr noundef nonnull align 8 dereferenceable(25) %16, i64 %25, i64 %27, ptr %29, i8 %31)
  ret void
}

; Function Attrs: mustprogress nounwind uwtable
define internal void @_ZN12_GLOBAL__N_118RegionStoreManager13bindAggregateERKNS_17RegionBindingsRefEPKN5clang4ento11TypedRegionENS5_4SValE(ptr dead_on_unwind noalias writable sret(%"class.(anonymous namespace)::RegionBindingsRef") align 8 %0, ptr noundef nonnull align 8 dereferenceable(248) %1, ptr noundef nonnull align 8 dereferenceable(25) %2, ptr noundef %3, ptr %4, i8 %5) #0 align 2 {
  %7 = alloca ptr, align 8
  %8 = alloca %"class.clang::ento::SVal", align 8
  %9 = alloca ptr, align 8
  %10 = alloca ptr, align 8
  %11 = alloca ptr, align 8
  %12 = alloca %"class.(anonymous namespace)::RegionBindingsRef", align 8
  %13 = alloca %"class.clang::ento::SVal", align 8
  store ptr %0, ptr %7, align 8
  %14 = getelementptr inbounds nuw { ptr, i8 }, ptr %8, i32 0, i32 0
  store ptr %4, ptr %14, align 8
  %15 = getelementptr inbounds nuw { ptr, i8 }, ptr %8, i32 0, i32 1
  store i8 %5, ptr %15, align 8
  store ptr %1, ptr %9, align 8
  store ptr %2, ptr %10, align 8
  store ptr %3, ptr %11, align 8
  %16 = load ptr, ptr %9, align 8
  %17 = load ptr, ptr %10, align 8
  %18 = load ptr, ptr %11, align 8
  call void @_ZN12_GLOBAL__N_118RegionStoreManager23removeSubRegionBindingsERKNS_17RegionBindingsRefEPKN5clang4ento9SubRegionE(ptr dead_on_unwind writable sret(%"class.(anonymous namespace)::RegionBindingsRef") align 8 %12, ptr noundef nonnull align 8 dereferenceable(248) %16, ptr noundef nonnull align 8 dereferenceable(25) %17, ptr noundef %18)
  %19 = load ptr, ptr %11, align 8
  call void @llvm.memcpy.p0.p0.i64(ptr align 8 %13, ptr align 8 %8, i64 16, i1 false)
  %20 = getelementptr inbounds nuw { ptr, i8 }, ptr %13, i32 0, i32 0
  %21 = load ptr, ptr %20, align 8
  %22 = getelementptr inbounds nuw { ptr, i8 }, ptr %13, i32 0, i32 1
  %23 = load i8, ptr %22, align 8
  call void @_ZNK12_GLOBAL__N_117RegionBindingsRef10addBindingEPKN5clang4ento9MemRegionENS_10BindingKey4KindENS2_4SValE(ptr dead_on_unwind writable sret(%"class.(anonymous namespace)::RegionBindingsRef") align 8 %0, ptr noundef nonnull align 8 dereferenceable(25) %12, ptr noundef %19, i32 noundef 0, ptr %21, i8 %23)
  call void @_ZN12_GLOBAL__N_117RegionBindingsRefD2Ev(ptr noundef nonnull align 8 dereferenceable(25) %12) #15
  ret void
}