; Function Attrs: mustprogress nounwind uwtable
define internal fastcc void @_ZN12_GLOBAL__N_118RegionStoreManager13bindAggregateERKNS_17RegionBindingsRefEPKN5clang4ento11TypedRegionENS5_4SValE(ptr dead_on_unwind noalias nonnull writable writeonly align 8 captures(none) %0, ptr noundef nonnull align 8 dereferenceable(248) %1, ptr noundef nonnull readonly align 8 captures(none) dereferenceable(25) %2, ptr noundef nonnull %3, ptr %4, i8 %5) unnamed_addr #2 align 2 {
_ZNK12_GLOBAL__N_117RegionBindingsRef10addBindingEPKN5clang4ento9MemRegionENS_10BindingKey4KindENS2_4SValE.exit:
  %6 = alloca %"class.(anonymous namespace)::RegionBindingsRef", align 8
  call fastcc void @_ZN12_GLOBAL__N_118RegionStoreManager23removeSubRegionBindingsERKNS_17RegionBindingsRefEPKN5clang4ento9SubRegionE(ptr dead_on_unwind noalias writable align 8 %6, ptr noundef nonnull align 8 dereferenceable(248) %1, ptr noundef nonnull align 8 dereferenceable(25) %2, ptr noundef %3)
  %7 = tail call { ptr, i64 } @_ZNK5clang4ento9MemRegion11getAsOffsetEv(ptr noundef nonnull align 8 dereferenceable(48) %3) #17, !noalias !521
  %8 = extractvalue { ptr, i64 } %7, 0
  %9 = extractvalue { ptr, i64 } %7, 1
  %10 = icmp eq i64 %9, 9223372036854775807
  %11 = ptrtoint ptr %3 to i64
  %12 = and i64 %11, -7
  %13 = or disjoint i64 %12, 4
  %14 = ptrtoint ptr %8 to i64
  %15 = and i64 %14, -7
  %.sroa.09.0.i.i = select i1 %10, i64 %13, i64 %15
  %.sroa.310.0.i.i = select i1 %10, i64 %14, i64 %9
  call fastcc void @_ZNK12_GLOBAL__N_117RegionBindingsRef10addBindingENS_10BindingKeyEN5clang4ento4SValE(ptr dead_on_unwind noalias nonnull writable align 8 %0, ptr noundef nonnull readonly align 8 dereferenceable(25) %6, i64 %.sroa.09.0.i.i, i64 %.sroa.310.0.i.i, ptr %4, i8 %5)
  %.val = load ptr, ptr %6, align 8
  %.not.i.i.i.i = icmp eq ptr %.val, null
  br i1 %.not.i.i.i.i, label %_ZN12_GLOBAL__N_117RegionBindingsRefD2Ev.exit, label %16

16:                                               ; preds = %_ZNK12_GLOBAL__N_117RegionBindingsRef10addBindingEPKN5clang4ento9MemRegionENS_10BindingKey4KindENS2_4SValE.exit
  %17 = getelementptr inbounds nuw i8, ptr %.val, i64 68
  %18 = load i32, ptr %17, align 4
  %19 = add i32 %18, -1
  store i32 %19, ptr %17, align 4
  %20 = icmp eq i32 %19, 0
  br i1 %20, label %21, label %_ZN12_GLOBAL__N_117RegionBindingsRefD2Ev.exit

21:                                               ; preds = %16
  tail call fastcc void @_ZN4llvm11ImutAVLTreeINS_16ImutKeyValueInfoIPKN5clang4ento9MemRegionENS_12ImmutableMapIN12_GLOBAL__N_110BindingKeyENS3_4SValENS1_IS9_SA_EEEEEEE7destroyEv(ptr noundef nonnull align 8 dereferenceable(72) %.val)
  br label %_ZN12_GLOBAL__N_117RegionBindingsRefD2Ev.exit

_ZN12_GLOBAL__N_117RegionBindingsRefD2Ev.exit:    ; preds = %_ZNK12_GLOBAL__N_117RegionBindingsRef10addBindingEPKN5clang4ento9MemRegionENS_10BindingKey4KindENS2_4SValE.exit, %16, %21
  ret void
}